(dp0
S'kc'
p1
(lp2
F0.026147836868708
aF-0.008281285819487
aF-0.000157005204226
aF0.000147699131841
aF0.0
asS'alpha_c'
p3
F0.0
sS'fc_err'
p4
(lp5
F2.164397369394806
aF2.020071561303139
asS'cc'
p6
(lp7
F956.9105164280157
aF533.4520324414847
asS'alpha_c_err'
p8
F0.0
sS'fc'
p9
(lp10
F1049.3317526048313
aF1051.3184762853225
asS'cc_err'
p11
(lp12
F3.314956924207777
aF2.697606587350414
asS'kc_err'
p13
(lp14
F0.005403085916854
aF0.015403918092499
aF0.000950699224682
aF0.001181943171574
aF0.0
asS'im_size'
p15
(lp16
I1920
aI1080
as.